; Function Attrs: mustprogress uwtable
define void @_Z25allocStatePrevStepPullComP7t_statePK6pull_t(ptr noundef %0, ptr noundef readonly %1) local_unnamed_addr #6 personality ptr @__gxx_personality_v0 {
  %3 = alloca double, align 8
  %.not = icmp eq ptr %1, null
  br i1 %.not, label %4, label %10

4:                                                ; preds = %2
  %5 = getelementptr inbounds i8, ptr %0, i64 808
  %6 = load ptr, ptr %5, align 8
  %7 = getelementptr inbounds i8, ptr %0, i64 816
  %8 = load ptr, ptr %7, align 8
  %.not.i.i = icmp eq ptr %8, %6
  br i1 %.not.i.i, label %_ZNSt6vectorIdSaIdEE5clearEv.exit, label %9

9:                                                ; preds = %4
  store ptr %6, ptr %7, align 8
  br label %_ZNSt6vectorIdSaIdEE5clearEv.exit

10:                                               ; preds = %2
  %11 = getelementptr inbounds i8, ptr %1, i64 104
  %12 = getelementptr inbounds i8, ptr %1, i64 112
  %13 = load ptr, ptr %12, align 8
  %14 = load ptr, ptr %11, align 8
  %15 = ptrtoint ptr %13 to i64
  %16 = ptrtoint ptr %14 to i64
  %17 = sub i64 %15, %16
  %18 = sdiv exact i64 %17, 272
  %19 = getelementptr inbounds i8, ptr %0, i64 808
  %20 = getelementptr inbounds i8, ptr %0, i64 816
  %21 = load ptr, ptr %20, align 8
  %22 = load ptr, ptr %19, align 8
  %23 = ptrtoint ptr %21 to i64
  %24 = ptrtoint ptr %22 to i64
  %25 = sub i64 %23, %24
  %26 = ashr exact i64 %25, 3
  %27 = udiv i64 %26, 3
  %.not7 = icmp eq i64 %27, %18
  br i1 %.not7, label %_ZNSt6vectorIdSaIdEE5clearEv.exit, label %28

28:                                               ; preds = %10
  %29 = mul nsw i64 %18, 3
  store double 0x7FF8000000000000, ptr %3, align 8
  %30 = icmp ult i64 %26, %29
  br i1 %30, label %31, label %33

31:                                               ; preds = %28
  %32 = sub nsw i64 %29, %26
  call void @_ZNSt6vectorIdSaIdEE14_M_fill_insertEN9__gnu_cxx17__normal_iteratorIPdS1_EEmRKd(ptr noundef nonnull align 8 dereferenceable(24) %19, ptr %21, i64 noundef %32, ptr noundef nonnull align 8 dereferenceable(8) %3)
  br label %_ZNSt6vectorIdSaIdEE5clearEv.exit

33:                                               ; preds = %28
  %34 = icmp ugt i64 %26, %29
  br i1 %34, label %35, label %_ZNSt6vectorIdSaIdEE5clearEv.exit

35:                                               ; preds = %33
  %36 = getelementptr inbounds double, ptr %22, i64 %29
  %.not.i.i8 = icmp eq ptr %21, %36
  br i1 %.not.i.i8, label %_ZNSt6vectorIdSaIdEE5clearEv.exit, label %37

37:                                               ; preds = %35
  store ptr %36, ptr %20, align 8
  br label %_ZNSt6vectorIdSaIdEE5clearEv.exit

_ZNSt6vectorIdSaIdEE5clearEv.exit:                ; preds = %37, %35, %33, %31, %9, %4, %10
  ret void
}